(lp0
V111.13.109.27:80
p1
aV222.196.33.254:3128
p2
aV111.13.7.120:80
p3
aV111.13.2.138:80
p4
aV111.13.7.117:80
p5
aV111.13.7.119:80
p6
aV210.61.209.197:3128
p7
aV223.20.215.217:9000
p8
aV61.136.163.245:3128
p9
aV111.13.7.122:80
p10
aV111.13.7.123:80
p11
aV106.119.0.244:8080
p12
aV93.91.112.185:80
p13
aV120.77.255.133:8088
p14
aV183.232.65.203:3128
p15
aV124.200.102.149:8080
p16
aV122.72.32.74:80
p17
aV111.13.2.131:80
p18
aV61.152.81.193:9100
p19
aV162.243.18.46:3128
p20
a.