(lp0
V183.232.65.203:3128
p1
aV183.232.65.202:3128
p2
aV219.76.4.12:88
p3
aV219.149.46.151:3128
p4
aV110.189.153.33:53281
p5
aV122.72.32.82:80
p6
aV121.69.3.102:8080
p7
aV223.68.1.38:8000
p8
aV111.13.109.27:80
p9
aV120.132.71.212:80
p10
aV111.13.7.120:80
p11
aV111.13.2.138:80
p12
aV111.13.7.117:80
p13
aV111.13.7.119:80
p14
aV58.49.110.50:8080
p15
aV61.136.163.245:3128
p16
aV111.13.7.122:80
p17
aV111.13.7.123:80
p18
aV106.119.0.244:8080
p19
aV122.72.99.103:80
p20
a.