(lp0
S'52.35.24.254:8080'
p1
aS'104.236.51.165:8080'
p2
aS'35.197.128.104:8080'
p3
aS'104.131.118.88:3128'
p4
aS'52.44.16.168:4000'
p5
aS'52.8.172.72:4002'
p6
aS'104.236.110.244:8080'
p7
aS'52.170.219.211:3128'
p8
aS'47.52.108.18:80'
p9
aS'45.55.27.246:80'
p10
aS'66.39.5.184:80'
p11
aS'104.236.55.48:8080'
p12
aS'104.236.47.73:8080'
p13
aV183.232.65.203:3128
p14
aV183.232.65.202:3128
p15
aV219.76.4.12:88
p16
aV111.13.109.27:80
p17
aV111.13.7.120:80
p18
aV111.13.2.138:80
p19
aV111.13.7.117:80
p20
aV111.13.7.119:80
p21
aV58.49.110.50:8080
p22
aV111.13.7.122:80
p23
aV111.13.7.123:80
p24
aV106.119.0.244:8080
p25
a.