(lp0
S'138.197.83.21:8080'
p1
aS'159.203.112.118:3128'
p2
aS'165.227.124.179:3128'
p3
aS'52.173.77.89:3128'
p4
aS'54.158.134.115:80'
p5
aS'216.32.29.4:8008'
p6
aS'165.227.92.177:80'
p7
aS'52.88.230.152:8080'
p8
aS'52.8.172.72:4002'
p9
aS'54.89.152.64:80'
p10
aS'52.36.87.149:80'
p11
aS'199.195.253.124:3128'
p12
aS'72.12.204.31:8080'
p13
a.