(lp0
S'52.35.24.254:8080'
p1
aS'47.52.24.117:80'
p2
aS'216.56.48.118:9000'
p3
aS'47.91.233.131:8080'
p4
aS'208.101.7.183:80'
p5
aS'104.236.51.165:8080'
p6
aS'104.236.13.100:8888'
p7
aS'54.89.152.64:80'
p8
aS'192.241.157.151:8080'
p9
aS'173.208.143.142:5555'
p10
aS'35.197.128.104:8080'
p11
aS'67.205.160.136:3128'
p12
aS'104.131.118.88:3128'
p13
aS'104.236.54.196:8080'
p14
aS'52.44.16.168:4000'
p15
aS'52.8.172.72:4002'
p16
aS'104.236.110.244:8080'
p17
aS'52.170.219.211:3128'
p18
aS'12.157.129.35:8080'
p19
aS'72.12.204.31:8080'
p20
aS'72.12.204.77:8080'
p21
aS'47.52.108.18:80'
p22
aS'165.138.124.4:8080'
p23
aS'45.55.27.246:80'
p24
aS'173.208.143.139:5555'
p25
aS'66.39.5.184:80'
p26
aS'104.236.55.48:8080'
p27
aS'104.236.47.73:8080'
p28
a.